; Function Attrs: mustprogress uwtable
define noundef nonnull align 8 dereferenceable(72) ptr @_ZrsINSt7__cxx1112basic_stringIcSt11char_traitsIcESaIcEEEERN12colvarmodule13memory_streamES8_RT_(ptr noundef nonnull returned align 8 dereferenceable(72) %0, ptr noundef nonnull align 8 dereferenceable(32) %1) local_unnamed_addr #0 {
  %3 = getelementptr inbounds nuw i8, ptr %0, i64 56
  %4 = load i32, ptr %3, align 8, !tbaa !21
  %5 = or i32 %4, 2
  store i32 %5, ptr %3, align 8, !tbaa !21
  %6 = getelementptr inbounds nuw i8, ptr %0, i64 40
  %7 = load i64, ptr %6, align 8, !tbaa !27
  %8 = getelementptr inbounds nuw i8, ptr %0, i64 64
  %9 = load i64, ptr %8, align 8, !tbaa !33
  %10 = sub i64 %7, %9
  %11 = icmp ugt i64 %10, 7
  br i1 %11, label %12, label %_ZN12colvarmodule13memory_stream11read_objectINSt7__cxx1112basic_stringIcSt11char_traitsIcESaIcEEEEEvRT_.exit

12:                                               ; preds = %2
  %13 = getelementptr inbounds nuw i8, ptr %0, i64 8
  %14 = load ptr, ptr %13, align 8, !tbaa !34
  %.not.i.i.i = icmp eq ptr %14, null
  %15 = getelementptr inbounds nuw i8, ptr %0, i64 16
  %16 = load ptr, ptr %15, align 8
  %17 = select i1 %.not.i.i.i, ptr %16, ptr %14
  %18 = getelementptr inbounds nuw i8, ptr %17, i64 %9
  %.0.copyload.i = load i64, ptr %18, align 1
  %19 = add i64 %9, 8
  store i64 %19, ptr %8, align 8, !tbaa !33
  %20 = sub i64 %7, %19
  %.not.i = icmp ugt i64 %.0.copyload.i, %20
  br i1 %.not.i, label %28, label %21

21:                                               ; preds = %12
  %22 = getelementptr inbounds nuw i8, ptr %17, i64 %19
  %23 = getelementptr inbounds nuw i8, ptr %1, i64 8
  %24 = load i64, ptr %23, align 8, !tbaa !24
  %25 = tail call noundef nonnull align 8 dereferenceable(32) ptr @_ZNSt7__cxx1112basic_stringIcSt11char_traitsIcESaIcEE10_M_replaceEmmPKcm(ptr noundef nonnull align 8 dereferenceable(32) %1, i64 noundef 0, i64 noundef %24, ptr noundef %22, i64 noundef %.0.copyload.i)
  %26 = load i64, ptr %8, align 8, !tbaa !33
  %27 = add i64 %26, %.0.copyload.i
  store i64 %27, ptr %8, align 8, !tbaa !33
  br label %_ZN12colvarmodule13memory_stream11read_objectINSt7__cxx1112basic_stringIcSt11char_traitsIcESaIcEEEEEvRT_.exit.sink.split

28:                                               ; preds = %12
  %29 = or i32 %4, 6
  br label %_ZN12colvarmodule13memory_stream11read_objectINSt7__cxx1112basic_stringIcSt11char_traitsIcESaIcEEEEEvRT_.exit.sink.split

_ZN12colvarmodule13memory_stream11read_objectINSt7__cxx1112basic_stringIcSt11char_traitsIcESaIcEEEEEvRT_.exit.sink.split: ; preds = %28, %21
  %.sink = phi i32 [ 0, %21 ], [ %29, %28 ]
  store i32 %.sink, ptr %3, align 8, !tbaa !21
  br label %_ZN12colvarmodule13memory_stream11read_objectINSt7__cxx1112basic_stringIcSt11char_traitsIcESaIcEEEEEvRT_.exit

_ZN12colvarmodule13memory_stream11read_objectINSt7__cxx1112basic_stringIcSt11char_traitsIcESaIcEEEEEvRT_.exit: ; preds = %_ZN12colvarmodule13memory_stream11read_objectINSt7__cxx1112basic_stringIcSt11char_traitsIcESaIcEEEEEvRT_.exit.sink.split, %2
  ret ptr %0
}